	.file	"main.c"
	.text
	.def	_printf;	.scl	3;	.type	32;	.endef
_printf:
LFB1:
	.cfi_startproc
	pushl	%ebp
	.cfi_def_cfa_offset 8
	.cfi_offset 5, -8
	movl	%esp, %ebp
	.cfi_def_cfa_register 5
	pushl	%ebx
	subl	$36, %esp
	.cfi_offset 3, -12
	leal	12(%ebp), %eax
	movl	%eax, -12(%ebp)
	movl	-12(%ebp), %eax
	movl	%eax, 4(%esp)
	movl	8(%ebp), %eax
	movl	%eax, (%esp)
	call	___mingw_vprintf
	movl	%eax, %ebx
	movl	%ebx, %eax
	addl	$36, %esp
	popl	%ebx
	.cfi_restore 3
	popl	%ebp
	.cfi_restore 5
	.cfi_def_cfa 4, 4
	ret
	.cfi_endproc
LFE1:
	.def	___main;	.scl	2;	.type	32;	.endef
	.section .rdata,"dr"
LC0:
	.ascii "fun_double(10) = %d\12\0"
LC1:
	.ascii "fun_quadruple(10) = %d\12\0"
	.text
	.globl	_main
	.def	_main;	.scl	2;	.type	32;	.endef
_main:
LFB10:
	.cfi_startproc
	pushl	%ebp
	.cfi_def_cfa_offset 8
	.cfi_offset 5, -8
	movl	%esp, %ebp
	.cfi_def_cfa_register 5
	andl	$-16, %esp
	subl	$32, %esp
	call	___main
	movl	$10, (%esp)
	call	_fun_double
	movl	%eax, 28(%esp)
	movl	$10, (%esp)
	call	_fun_quadruple
	movl	%eax, 24(%esp)
	movl	28(%esp), %eax
	movl	%eax, 4(%esp)
	movl	$LC0, (%esp)
	call	_printf
	movl	24(%esp), %eax
	movl	%eax, 4(%esp)
	movl	$LC1, (%esp)
	call	_printf
	movl	$0, %eax
	leave
	.cfi_restore 5
	.cfi_def_cfa 4, 4
	ret
	.cfi_endproc
LFE10:
	.globl	_fun_double
	.def	_fun_double;	.scl	2;	.type	32;	.endef
_fun_double:
LFB11:
	.cfi_startproc
	pushl	%ebp
	.cfi_def_cfa_offset 8
	.cfi_offset 5, -8
	movl	%esp, %ebp
	.cfi_def_cfa_register 5
	movl	8(%ebp), %eax
	addl	%eax, %eax
	popl	%ebp
	.cfi_restore 5
	.cfi_def_cfa 4, 4
	ret
	.cfi_endproc
LFE11:
	.globl	_fun_quadruple
	.def	_fun_quadruple;	.scl	2;	.type	32;	.endef
_fun_quadruple:
LFB12:
	.cfi_startproc
	pushl	%ebp
	.cfi_def_cfa_offset 8
	.cfi_offset 5, -8
	movl	%esp, %ebp
	.cfi_def_cfa_register 5
	movl	8(%ebp), %eax
	sall	$2, %eax
	popl	%ebp
	.cfi_restore 5
	.cfi_def_cfa 4, 4
	ret
	.cfi_endproc
LFE12:
	.ident	"GCC: (MinGW.org GCC-6.3.0-1) 6.3.0"
	.def	___mingw_vprintf;	.scl	2;	.type	32;	.endef
