	.file	"b.c"
	.text
	.def	_printf;	.scl	3;	.type	32;	.endef
_printf:
LFB1:
	.cfi_startproc
	pushl	%ebp
	.cfi_def_cfa_offset 8
	.cfi_offset 5, -8
	movl	%esp, %ebp
	.cfi_def_cfa_register 5
	pushl	%ebx
	subl	$36, %esp
	.cfi_offset 3, -12
	leal	12(%ebp), %eax
	movl	%eax, -12(%ebp)
	movl	-12(%ebp), %eax
	movl	%eax, 4(%esp)
	movl	8(%ebp), %eax
	movl	%eax, (%esp)
	call	___mingw_vprintf
	movl	%eax, %ebx
	movl	%ebx, %eax
	addl	$36, %esp
	popl	%ebx
	.cfi_restore 3
	popl	%ebp
	.cfi_restore 5
	.cfi_def_cfa 4, 4
	ret
	.cfi_endproc
LFE1:
	.section .rdata,"dr"
	.align 4
LC0:
	.ascii "Struct.x * 2 = %u\12Struct.y * 2 = %d\0"
	.text
	.globl	_function2
	.def	_function2;	.scl	2;	.type	32;	.endef
_function2:
LFB10:
	.cfi_startproc
	pushl	%ebp
	.cfi_def_cfa_offset 8
	.cfi_offset 5, -8
	movl	%esp, %ebp
	.cfi_def_cfa_register 5
	subl	$24, %esp
	movl	12(%ebp), %eax
	leal	(%eax,%eax), %edx
	movl	8(%ebp), %eax
	addl	%eax, %eax
	movl	%edx, 8(%esp)
	movl	%eax, 4(%esp)
	movl	$LC0, (%esp)
	call	_printf
	nop
	leave
	.cfi_restore 5
	.cfi_def_cfa 4, 4
	ret
	.cfi_endproc
LFE10:
	.ident	"GCC: (MinGW.org GCC-6.3.0-1) 6.3.0"
	.def	___mingw_vprintf;	.scl	2;	.type	32;	.endef
