
Memory Configuration

Name             Origin             Length             Attributes
flash            0x08000000         0x00020000         xr
sram             0x20000000         0x00005000         xrw
*default*        0x00000000         0xffffffff

Linker script and memory map


.text           0x08000000      0x298
 *(.vectors)
 .vectors       0x08000000       0x6c ./obj/startup.o
                0x08000000                g_p_Vectors
 *(.text)
 .text          0x0800006c      0x19c ./obj/main.o
                0x0800006c                main
                0x080000d0                gpio_init
                0x0800014c                wait_ms
                0x08000188                clock_init
 .text          0x08000208       0x90 ./obj/startup.o
                0x08000208                reset_handler
                0x0800028c                EXTI0_handler
                0x0800028c                NMI_handler
                0x0800028c                WWDG_handler
                0x0800028c                default_handler
                0x0800028c                SVCall_handler
                0x0800028c                SysTick_handler
                0x0800028c                PVD_handler
                0x0800028c                usageFault_handler
                0x0800028c                hardFault_handler
                0x0800028c                RCC_handler
                0x0800028c                RTC_handler
                0x0800028c                EXTI2_handler
                0x0800028c                EXTI3_handler
                0x0800028c                FLASH_handler
                0x0800028c                busFault_handler
                0x0800028c                EXTI4_handler
                0x0800028c                PendSV_handler
                0x0800028c                debugMonitor_handler
                0x0800028c                EXTI1_handler
                0x0800028c                TAMPER_handler
                0x0800028c                MM_handler
                0x0800028c                reserved_handler

.glue_7         0x08000298        0x0
 .glue_7        0x08000298        0x0 linker stubs

.glue_7t        0x08000298        0x0
 .glue_7t       0x08000298        0x0 linker stubs

.vfp11_veneer   0x08000298        0x0
 .vfp11_veneer  0x08000298        0x0 linker stubs

.v4_bx          0x08000298        0x0
 .v4_bx         0x08000298        0x0 linker stubs

.iplt           0x08000298        0x0
 .iplt          0x08000298        0x0 ./obj/main.o

.rel.dyn        0x08000298        0x0
 .rel.iplt      0x08000298        0x0 ./obj/main.o

.rodata         0x08000298        0x0
 *(.rodata)
                0x08000298                _E_TEXT_ = .

.data           0x20000000        0x0 load address 0x08000298
                0x20000000                _S_DATA_ = .
 *(.data)
 .data          0x20000000        0x0 ./obj/main.o
 .data          0x20000000        0x0 ./obj/startup.o
                0x20000000                . = ALIGN (0x4)
                0x20000000                _E_DATA_ = .

.igot.plt       0x20000000        0x0 load address 0x08000298
 .igot.plt      0x20000000        0x0 ./obj/main.o

.bss            0x20000000      0x400 load address 0x08000298
                0x20000000                _S_BSS_ = .
 *(.bss)
 .bss           0x20000000        0x0 ./obj/main.o
 .bss           0x20000000        0x0 ./obj/startup.o
                0x20000000                . = ALIGN (0x4)
                0x20000000                _E_BSS_ = .
 *(.stack)
 .stack         0x20000000      0x400 ./obj/startup.o
LOAD ./obj/main.o
LOAD ./obj/startup.o
OUTPUT(bin/MCU-GPIO-01.elf elf32-littlearm)
LOAD linker stubs

.debug_info     0x00000000      0x2f5
 .debug_info    0x00000000      0x13a ./obj/main.o
 .debug_info    0x0000013a      0x1bb ./obj/startup.o

.debug_abbrev   0x00000000      0x1b3
 .debug_abbrev  0x00000000       0xbe ./obj/main.o
 .debug_abbrev  0x000000be       0xf5 ./obj/startup.o

.debug_loc      0x00000000      0x198
 .debug_loc     0x00000000      0x11c ./obj/main.o
 .debug_loc     0x0000011c       0x7c ./obj/startup.o

.debug_aranges  0x00000000       0x40
 .debug_aranges
                0x00000000       0x20 ./obj/main.o
 .debug_aranges
                0x00000020       0x20 ./obj/startup.o

.debug_line     0x00000000      0x26d
 .debug_line    0x00000000      0x144 ./obj/main.o
 .debug_line    0x00000144      0x129 ./obj/startup.o

.debug_str      0x00000000      0x1e1
 .debug_str     0x00000000      0x167 ./obj/main.o
                                0x1ac (size before relaxing)
 .debug_str     0x00000167       0x7a ./obj/startup.o
                                0x1f5 (size before relaxing)

.comment        0x00000000       0x57
 .comment       0x00000000       0x57 ./obj/main.o
                                 0x58 (size before relaxing)
 .comment       0x00000057       0x58 ./obj/startup.o

.ARM.attributes
                0x00000000       0x2d
 .ARM.attributes
                0x00000000       0x2d ./obj/main.o
 .ARM.attributes
                0x0000002d       0x2d ./obj/startup.o

.debug_frame    0x00000000       0xe8
 .debug_frame   0x00000000       0x98 ./obj/main.o
 .debug_frame   0x00000098       0x50 ./obj/startup.o
