	.file	"main.c"
	.text
	.def	_printf;	.scl	3;	.type	32;	.endef
_printf:
LFB1:
	.cfi_startproc
	pushl	%ebp
	.cfi_def_cfa_offset 8
	.cfi_offset 5, -8
	movl	%esp, %ebp
	.cfi_def_cfa_register 5
	pushl	%ebx
	subl	$36, %esp
	.cfi_offset 3, -12
	leal	12(%ebp), %eax
	movl	%eax, -12(%ebp)
	movl	-12(%ebp), %eax
	movl	%eax, 4(%esp)
	movl	8(%ebp), %eax
	movl	%eax, (%esp)
	call	___mingw_vprintf
	movl	%eax, %ebx
	movl	%ebx, %eax
	addl	$36, %esp
	popl	%ebx
	.cfi_restore 3
	popl	%ebp
	.cfi_restore 5
	.cfi_def_cfa 4, 4
	ret
	.cfi_endproc
LFE1:
	.def	___main;	.scl	2;	.type	32;	.endef
	.section .rdata,"dr"
LC1:
	.ascii "Array in original order\0"
LC2:
	.ascii "%s\12\0"
LC3:
	.ascii "Array in ascending order\0"
LC4:
	.ascii "\12%s\12\0"
	.data
	.align 32
LC0:
	.long	12
	.long	26
	.long	43
	.long	21
	.long	1
	.long	49
	.long	634
	.long	52
	.long	71
	.long	32
	.long	15
	.long	16
	.long	7
	.long	18
	.long	2
	.long	122
	.long	23
	.long	45
	.long	234
	.long	63
	.text
	.globl	_main
	.def	_main;	.scl	2;	.type	32;	.endef
_main:
LFB10:
	.cfi_startproc
	pushl	%ebp
	.cfi_def_cfa_offset 8
	.cfi_offset 5, -8
	movl	%esp, %ebp
	.cfi_def_cfa_register 5
	pushl	%edi
	pushl	%esi
	pushl	%ebx
	andl	$-16, %esp
	subl	$96, %esp
	.cfi_offset 7, -12
	.cfi_offset 6, -16
	.cfi_offset 3, -20
	call	___main
	leal	16(%esp), %eax
	movl	$LC0, %ebx
	movl	$20, %edx
	movl	%eax, %edi
	movl	%ebx, %esi
	movl	%edx, %ecx
	rep movsl
	movl	$LC1, 4(%esp)
	movl	$LC2, (%esp)
	call	_printf
	movl	$20, 4(%esp)
	leal	16(%esp), %eax
	movl	%eax, (%esp)
	call	_printIntArray
	movl	$20, 4(%esp)
	leal	16(%esp), %eax
	movl	%eax, (%esp)
	call	_bubbleSort
	movl	$LC3, 4(%esp)
	movl	$LC4, (%esp)
	call	_printf
	movl	$20, 4(%esp)
	leal	16(%esp), %eax
	movl	%eax, (%esp)
	call	_printIntArray
	movl	$0, %eax
	leal	-12(%ebp), %esp
	popl	%ebx
	.cfi_restore 3
	popl	%esi
	.cfi_restore 6
	popl	%edi
	.cfi_restore 7
	popl	%ebp
	.cfi_restore 5
	.cfi_def_cfa 4, 4
	ret
	.cfi_endproc
LFE10:
	.section .rdata,"dr"
LC5:
	.ascii "%5d\0"
LC6:
	.ascii "\12\0"
	.text
	.globl	_printIntArray
	.def	_printIntArray;	.scl	2;	.type	32;	.endef
_printIntArray:
LFB11:
	.cfi_startproc
	pushl	%ebp
	.cfi_def_cfa_offset 8
	.cfi_offset 5, -8
	movl	%esp, %ebp
	.cfi_def_cfa_register 5
	subl	$40, %esp
	movl	$0, -12(%ebp)
	jmp	L6
L7:
	movl	-12(%ebp), %eax
	leal	0(,%eax,4), %edx
	movl	8(%ebp), %eax
	addl	%edx, %eax
	movl	(%eax), %eax
	movl	%eax, 4(%esp)
	movl	$LC5, (%esp)
	call	_printf
	addl	$1, -12(%ebp)
L6:
	movl	-12(%ebp), %eax
	cmpl	12(%ebp), %eax
	jb	L7
	movl	$LC6, (%esp)
	call	_printf
	nop
	leave
	.cfi_restore 5
	.cfi_def_cfa 4, 4
	ret
	.cfi_endproc
LFE11:
	.globl	_bubbleSort
	.def	_bubbleSort;	.scl	2;	.type	32;	.endef
_bubbleSort:
LFB12:
	.cfi_startproc
	pushl	%ebp
	.cfi_def_cfa_offset 8
	.cfi_offset 5, -8
	movl	%esp, %ebp
	.cfi_def_cfa_register 5
	subl	$40, %esp
	movl	$0, -12(%ebp)
	jmp	L9
L13:
	movl	$0, -16(%ebp)
	jmp	L10
L12:
	movl	-16(%ebp), %eax
	leal	0(,%eax,4), %edx
	movl	8(%ebp), %eax
	addl	%edx, %eax
	movl	(%eax), %edx
	movl	-16(%ebp), %eax
	addl	$1, %eax
	leal	0(,%eax,4), %ecx
	movl	8(%ebp), %eax
	addl	%ecx, %eax
	movl	(%eax), %eax
	cmpl	%eax, %edx
	jle	L11
	movl	-16(%ebp), %eax
	addl	$1, %eax
	leal	0(,%eax,4), %edx
	movl	8(%ebp), %eax
	addl	%eax, %edx
	movl	-16(%ebp), %eax
	leal	0(,%eax,4), %ecx
	movl	8(%ebp), %eax
	addl	%ecx, %eax
	movl	%edx, 4(%esp)
	movl	%eax, (%esp)
	call	_swap
L11:
	addl	$1, -16(%ebp)
L10:
	movl	12(%ebp), %eax
	subl	$1, %eax
	cmpl	-16(%ebp), %eax
	ja	L12
	addl	$1, -12(%ebp)
L9:
	movl	12(%ebp), %eax
	subl	$1, %eax
	cmpl	-12(%ebp), %eax
	ja	L13
	nop
	leave
	.cfi_restore 5
	.cfi_def_cfa 4, 4
	ret
	.cfi_endproc
LFE12:
	.globl	_swap
	.def	_swap;	.scl	2;	.type	32;	.endef
_swap:
LFB13:
	.cfi_startproc
	pushl	%ebp
	.cfi_def_cfa_offset 8
	.cfi_offset 5, -8
	movl	%esp, %ebp
	.cfi_def_cfa_register 5
	subl	$16, %esp
	movl	8(%ebp), %eax
	movl	(%eax), %eax
	movl	%eax, -4(%ebp)
	movl	12(%ebp), %eax
	movl	(%eax), %edx
	movl	8(%ebp), %eax
	movl	%edx, (%eax)
	movl	12(%ebp), %eax
	movl	-4(%ebp), %edx
	movl	%edx, (%eax)
	nop
	leave
	.cfi_restore 5
	.cfi_def_cfa 4, 4
	ret
	.cfi_endproc
LFE13:
	.ident	"GCC: (MinGW.org GCC-6.3.0-1) 6.3.0"
	.def	___mingw_vprintf;	.scl	2;	.type	32;	.endef
